target datalayout = "e-m:e-p270:32:32-p271:32:32-p272:64:64-i64:64-i128:128-f80:128-n8:16:32:64-S128"
target triple = "x86_64-pc-linux-gnu"

@ett_bcp_ncp_management_inline_opt = internal global i32 0, align 4
@proto_bcp_ncp_option_management_inline = internal global i32 0, align 4

; Function Attrs: null_pointer_is_valid sspstrong uwtable
define internal i32 @dissect_bcp_ncp_management_inline(ptr noundef %0, ptr noundef %1, ptr noundef %2, ptr noundef %3) #1 {
  %5 = alloca ptr, align 8
  %6 = alloca ptr, align 8
  %7 = alloca ptr, align 8
  %8 = alloca ptr, align 8
  %9 = alloca ptr, align 8
  %10 = alloca ptr, align 8
  store ptr %0, ptr %5, align 8
  store ptr %1, ptr %6, align 8
  store ptr %2, ptr %7, align 8
  store ptr %3, ptr %8, align 8
  call void @llvm.lifetime.start.p0(i64 8, ptr %9) #6
  call void @llvm.lifetime.start.p0(i64 8, ptr %10) #6
  %11 = load ptr, ptr %5, align 8
  %12 = load ptr, ptr %6, align 8
  %13 = load ptr, ptr %7, align 8
  %14 = load i32, ptr @proto_bcp_ncp_option_management_inline, align 4
  %15 = load i32, ptr @ett_bcp_ncp_management_inline_opt, align 4
  %16 = call zeroext i1 @dissect_bcp_ncp_fixed_opt(ptr noundef %11, ptr noundef %12, ptr noundef %13, i32 noundef %14, i32 noundef %15, i32 noundef 3, ptr noundef %9, ptr noundef %10)
  %17 = load ptr, ptr %5, align 8
  %18 = call i32 @tvb_captured_length(ptr noundef %17)
  call void @llvm.lifetime.end.p0(i64 8, ptr %10) #6
  call void @llvm.lifetime.end.p0(i64 8, ptr %9) #6
  ret i32 %18
}